; Function Attrs: mustprogress uwtable
define void @_ZN5osgeo4proj6common8DateTime6createERKNSt7__cxx1112basic_stringIcSt11char_traitsIcESaIcEEE(ptr dead_on_unwind noalias writable writeonly sret(%"class.osgeo::proj::common::DateTime") align 8 captures(none) %0, ptr noundef nonnull readonly align 8 captures(none) dereferenceable(32) %1) local_unnamed_addr #0 align 2 personality ptr @__gxx_personality_v0 {
  %3 = alloca i64, align 8
  tail call void @llvm.experimental.noalias.scope.decl(metadata !118)
  %4 = tail call noalias noundef nonnull dereferenceable(32) ptr @_Znwm(i64 noundef 32) #38, !noalias !118
  %5 = getelementptr inbounds nuw i8, ptr %4, i64 16
  store ptr %5, ptr %4, align 8, !tbaa !47, !noalias !118
  %6 = load ptr, ptr %1, align 8, !tbaa !16, !noalias !118
  %7 = getelementptr inbounds nuw i8, ptr %1, i64 8
  %8 = load i64, ptr %7, align 8, !tbaa !21, !noalias !118
  call void @llvm.lifetime.start.p0(i64 8, ptr nonnull %3) #40, !noalias !118
  store i64 %8, ptr %3, align 8, !tbaa !48, !noalias !118
  %9 = icmp ugt i64 %8, 15
  br i1 %9, label %.noexc.i.i.i.i, label %._crit_edge.i.i.i.i.i

.noexc.i.i.i.i:                                   ; preds = %2
  %10 = invoke noundef ptr @_ZNSt7__cxx1112basic_stringIcSt11char_traitsIcESaIcEE9_M_createERmm(ptr noundef nonnull align 8 dereferenceable(32) %4, ptr noundef nonnull align 8 dereferenceable(8) %3, i64 noundef 0)
          to label %.noexc.i.i unwind label %16, !noalias !118

.noexc.i.i:                                       ; preds = %.noexc.i.i.i.i
  store ptr %10, ptr %4, align 8, !tbaa !16, !noalias !118
  %11 = load i64, ptr %3, align 8, !tbaa !48, !noalias !118
  store i64 %11, ptr %5, align 8, !tbaa !22, !noalias !118
  br label %._crit_edge.i.i.i.i.i

._crit_edge.i.i.i.i.i:                            ; preds = %.noexc.i.i, %2
  %12 = phi ptr [ %10, %.noexc.i.i ], [ %5, %2 ]
  switch i64 %8, label %15 [
    i64 1, label %13
    i64 0, label %_ZN5osgeo4proj6common8DateTimeC2ERKNSt7__cxx1112basic_stringIcSt11char_traitsIcESaIcEEE.exit
  ]

13:                                               ; preds = %._crit_edge.i.i.i.i.i
  %14 = load i8, ptr %6, align 1, !tbaa !22, !noalias !118
  store i8 %14, ptr %12, align 1, !tbaa !22, !noalias !118
  br label %_ZN5osgeo4proj6common8DateTimeC2ERKNSt7__cxx1112basic_stringIcSt11char_traitsIcESaIcEEE.exit

15:                                               ; preds = %._crit_edge.i.i.i.i.i
  call void @llvm.memcpy.p0.p0.i64(ptr align 1 %12, ptr align 1 %6, i64 %8, i1 false), !noalias !118
  br label %_ZN5osgeo4proj6common8DateTimeC2ERKNSt7__cxx1112basic_stringIcSt11char_traitsIcESaIcEEE.exit

16:                                               ; preds = %.noexc.i.i.i.i
  %17 = landingpad { ptr, i32 }
          cleanup
  call void @_ZdlPvm(ptr noundef nonnull %4, i64 noundef 32) #39, !noalias !118
  resume { ptr, i32 } %17

_ZN5osgeo4proj6common8DateTimeC2ERKNSt7__cxx1112basic_stringIcSt11char_traitsIcESaIcEEE.exit: ; preds = %._crit_edge.i.i.i.i.i, %13, %15
  %18 = load i64, ptr %3, align 8, !tbaa !48, !noalias !118
  %19 = getelementptr inbounds nuw i8, ptr %4, i64 8
  store i64 %18, ptr %19, align 8, !tbaa !21, !noalias !118
  %20 = load ptr, ptr %4, align 8, !tbaa !16, !noalias !118
  %21 = getelementptr inbounds nuw i8, ptr %20, i64 %18
  store i8 0, ptr %21, align 1, !tbaa !22, !noalias !118
  call void @llvm.lifetime.end.p0(i64 8, ptr nonnull %3) #40, !noalias !118
  store ptr %4, ptr %0, align 8, !tbaa !110, !alias.scope !118
  ret void
}